; Function Attrs: mustprogress uwtable
define internal void @_ZNSt17_Function_handlerIFvRN14ArgumentParser8InstanceEEZN16cmArgumentParserIZN12_GLOBAL__N_126HandleTransformPathCommandERKSt6vectorINSt7__cxx1112basic_stringIcSt11char_traitsIcESaIcEEESaISC_EER17cmExecutionStatusRKSt8functionIF11cmCMakePathRKSK_RKSC_EEbE9ArgumentsE4BindISt8optionalISC_EEERSU_N2cm18static_string_viewEMST_T_EUlS2_E_E9_M_invokeERKSt9_Any_dataS2_(ptr noundef nonnull readonly align 8 captures(none) dereferenceable(16) %0, ptr noundef nonnull align 8 dereferenceable(97) %1) #3 align 2 personality ptr @__gxx_personality_v0 {
  %.val = load i64, ptr %0, align 8
  %3 = getelementptr inbounds nuw i8, ptr %1, i64 24
  %4 = load ptr, ptr %3, align 8
  %5 = getelementptr inbounds i8, ptr %4, i64 %.val
  %6 = getelementptr inbounds nuw i8, ptr %5, i64 32
  %7 = load i8, ptr %6, align 8
  %8 = trunc i8 %7 to i1
  br i1 %8, label %_ZSt10__invoke_rIvRZN16cmArgumentParserIZN12_GLOBAL__N_126HandleTransformPathCommandERKSt6vectorINSt7__cxx1112basic_stringIcSt11char_traitsIcESaIcEEESaIS8_EER17cmExecutionStatusRKSt8functionIF11cmCMakePathRKSG_RKS8_EEbE9ArgumentsE4BindISt8optionalIS8_EEERSQ_N2cm18static_string_viewEMSP_T_EUlRN14ArgumentParser8InstanceEE_JS11_EENSt9enable_ifIX16is_invocable_r_vISX_T0_DpT1_EESX_E4typeEOS15_DpOS16_.exit, label %_ZNSt8optionalINSt7__cxx1112basic_stringIcSt11char_traitsIcESaIcEEEE7emplaceIJEEENSt9enable_ifIX18is_constructible_vIS5_DpT_EERS5_E4typeEDpOS9_.exit.i.i.i.i

_ZNSt8optionalINSt7__cxx1112basic_stringIcSt11char_traitsIcESaIcEEEE7emplaceIJEEENSt9enable_ifIX18is_constructible_vIS5_DpT_EERS5_E4typeEDpOS9_.exit.i.i.i.i: ; preds = %2
  tail call void @_ZNSt7__cxx1112basic_stringIcSt11char_traitsIcESaIcEEC1Ev(ptr noundef nonnull align 8 dereferenceable(40) %5) #21
  store i8 1, ptr %6, align 8
  br label %_ZSt10__invoke_rIvRZN16cmArgumentParserIZN12_GLOBAL__N_126HandleTransformPathCommandERKSt6vectorINSt7__cxx1112basic_stringIcSt11char_traitsIcESaIcEEESaIS8_EER17cmExecutionStatusRKSt8functionIF11cmCMakePathRKSG_RKS8_EEbE9ArgumentsE4BindISt8optionalIS8_EEERSQ_N2cm18static_string_viewEMSP_T_EUlRN14ArgumentParser8InstanceEE_JS11_EENSt9enable_ifIX16is_invocable_r_vISX_T0_DpT1_EESX_E4typeEOS15_DpOS16_.exit

_ZSt10__invoke_rIvRZN16cmArgumentParserIZN12_GLOBAL__N_126HandleTransformPathCommandERKSt6vectorINSt7__cxx1112basic_stringIcSt11char_traitsIcESaIcEEESaIS8_EER17cmExecutionStatusRKSt8functionIF11cmCMakePathRKSG_RKS8_EEbE9ArgumentsE4BindISt8optionalIS8_EEERSQ_N2cm18static_string_viewEMSP_T_EUlRN14ArgumentParser8InstanceEE_JS11_EENSt9enable_ifIX16is_invocable_r_vISX_T0_DpT1_EESX_E4typeEOS15_DpOS16_.exit: ; preds = %2, %_ZNSt8optionalINSt7__cxx1112basic_stringIcSt11char_traitsIcESaIcEEEE7emplaceIJEEENSt9enable_ifIX18is_constructible_vIS5_DpT_EERS5_E4typeEDpOS9_.exit.i.i.i.i
  tail call void @_ZN14ArgumentParser8Instance4BindERNSt7__cxx1112basic_stringIcSt11char_traitsIcESaIcEEE(ptr noundef nonnull align 8 dereferenceable(97) %1, ptr noundef nonnull align 8 dereferenceable(40) %5)
  ret void
}